target datalayout = "e-m:e-p270:32:32-p271:32:32-p272:64:64-i64:64-i128:128-f80:128-n8:16:32:64-S128"
target triple = "x86_64-pc-linux-gnu"

%struct.nghttp2_priority_spec = type { i32, i32, i8 }

; Function Attrs: nounwind uwtable
define hidden void @nghttp2_frame_pack_priority_spec(ptr noundef %0, ptr noundef %1) #0 {
  %3 = alloca ptr, align 8
  %4 = alloca ptr, align 8
  store ptr %0, ptr %3, align 8, !tbaa !3
  store ptr %1, ptr %4, align 8, !tbaa !8
  %5 = load ptr, ptr %3, align 8, !tbaa !3
  %6 = load ptr, ptr %4, align 8, !tbaa !8
  %7 = getelementptr inbounds nuw %struct.nghttp2_priority_spec, ptr %6, i32 0, i32 0
  %8 = load i32, ptr %7, align 4, !tbaa !78
  call void @nghttp2_put_uint32be(ptr noundef %5, i32 noundef %8)
  %9 = load ptr, ptr %4, align 8, !tbaa !8
  %10 = getelementptr inbounds nuw %struct.nghttp2_priority_spec, ptr %9, i32 0, i32 2
  %11 = load i8, ptr %10, align 4, !tbaa !79
  %12 = icmp ne i8 %11, 0
  br i1 %12, label %13, label %20

13:                                               ; preds = %2
  %14 = load ptr, ptr %3, align 8, !tbaa !3
  %15 = getelementptr inbounds i8, ptr %14, i64 0
  %16 = load i8, ptr %15, align 1, !tbaa !14
  %17 = zext i8 %16 to i32
  %18 = or i32 %17, 128
  %19 = trunc i32 %18 to i8
  store i8 %19, ptr %15, align 1, !tbaa !14
  br label %20

20:                                               ; preds = %13, %2
  %21 = load ptr, ptr %4, align 8, !tbaa !8
  %22 = getelementptr inbounds nuw %struct.nghttp2_priority_spec, ptr %21, i32 0, i32 1
  %23 = load i32, ptr %22, align 4, !tbaa !80
  %24 = sub nsw i32 %23, 1
  %25 = trunc i32 %24 to i8
  %26 = load ptr, ptr %3, align 8, !tbaa !3
  %27 = getelementptr inbounds i8, ptr %26, i64 4
  store i8 %25, ptr %27, align 1, !tbaa !14
  ret void
}