; Function Attrs: nounwind uwtable
define hidden void @nghttp2_frame_pack_priority_spec(ptr noundef %0, ptr noundef readonly captures(none) %1) local_unnamed_addr #0 {
  %3 = load i32, ptr %1, align 4, !tbaa !72
  tail call void @nghttp2_put_uint32be(ptr noundef %0, i32 noundef %3) #18
  %4 = getelementptr inbounds nuw i8, ptr %1, i64 8
  %5 = load i8, ptr %4, align 4, !tbaa !73
  %.not = icmp eq i8 %5, 0
  br i1 %.not, label %9, label %6

6:                                                ; preds = %2
  %7 = load i8, ptr %0, align 1, !tbaa !10
  %8 = or i8 %7, -128
  store i8 %8, ptr %0, align 1, !tbaa !10
  br label %9

9:                                                ; preds = %6, %2
  %10 = getelementptr inbounds nuw i8, ptr %1, i64 4
  %11 = load i32, ptr %10, align 4, !tbaa !74
  %12 = trunc i32 %11 to i8
  %13 = add i8 %12, -1
  %14 = getelementptr inbounds nuw i8, ptr %0, i64 4
  store i8 %13, ptr %14, align 1, !tbaa !10
  ret void
}